; Function Attrs: mustprogress uwtable
define void @_ZN6icu_7714ResourceBundleC2ERKNS_13UnicodeStringER10UErrorCode(ptr noundef nonnull align 8 dereferenceable(24) initializes((0, 8), (16, 24)) %0, ptr noundef nonnull align 8 dereferenceable(64) %1, ptr noundef nonnull align 4 dereferenceable(4) %2) unnamed_addr #0 align 2 personality ptr @__gxx_personality_v0 {
  store ptr getelementptr inbounds nuw inrange(-16, 24) (i8, ptr @_ZTVN6icu_7714ResourceBundleE, i64 16), ptr %0, align 8, !tbaa !3
  %4 = getelementptr inbounds nuw i8, ptr %0, i64 16
  store ptr null, ptr %4, align 8, !tbaa !6
  %5 = invoke noundef nonnull align 8 dereferenceable(217) ptr @_ZN6icu_776Locale10getDefaultEv()
          to label %6 unwind label %8

6:                                                ; preds = %3
  invoke void @_ZN6icu_7714ResourceBundle18constructForLocaleERKNS_13UnicodeStringERKNS_6LocaleER10UErrorCode(ptr noundef nonnull align 8 dereferenceable(24) %0, ptr noundef nonnull align 8 dereferenceable(64) %1, ptr noundef nonnull align 8 dereferenceable(217) %5, ptr noundef nonnull align 4 dereferenceable(4) %2)
          to label %7 unwind label %8

7:                                                ; preds = %6
  ret void

8:                                                ; preds = %6, %3
  %9 = landingpad { ptr, i32 }
          cleanup
  tail call void @_ZN6icu_777UObjectD2Ev(ptr noundef nonnull align 8 dereferenceable(8) %0) #4
  resume { ptr, i32 } %9
}